(dp1
S'output'
p2
S''
sS'layer'
p3
S'C:\\Users\\Pedro\\Downloads\\web2py\\applications\\images/models/db.py'
p4
sS'code'
p5
S'db = DAL("sqlite://storage.sqlite")\n\ndb.define_table(\'image\',\n   Field(\'title\'),\n   Field(\'file\', \'upload\'))\n\ndb.define_table(\'comment\',\n   Field(\'image_id\', db.image),\n   Field(\'author\'),\n   Field(\'email\'),\n   Field(\'body\', \'text\'))\n\ndb.image.title.requires = IS_NOT_IN_DB(db, db.image.title)\ndb.comment.image_id.requires = IS_IN_DB(db, db.image.id, \'%(title)s\')\ndb.comment.author.requires = IS_NOT_EMPTY()\ndb.comment.email.requires = IS_EMAIL()\ndb.comment.body.requires = IS_NOT_EMPTY()\n\ndb.comment.image_id.writable = db.comment.image_id.readable = False\n\ncrud.settings.auth = None                      # =auth to enforce authorization on crud\n'
p6
sS'traceback'
p7
S'Traceback (most recent call last):\n  File "gluon/restricted.py", line 178, in restricted\n  File "C:\\Users\\Pedro\\Downloads\\web2py\\applications\\images/models/db.py", line 21, in <module>\nNameError: name \'crud\' is not defined\n'
p8
s.